target datalayout = "e-m:e-p270:32:32-p271:32:32-p272:64:64-i64:64-i128:128-f80:128-n8:16:32:64-S128"
target triple = "x86_64-unknown-linux-gnu"

%"class.openvdb::v11_0::io::DelayedLoadMetadata" = type { %"class.openvdb::v11_0::Metadata", %"class.std::vector", %"class.std::vector.0" }
%"class.openvdb::v11_0::Metadata" = type { ptr }
%"class.std::vector" = type { %"struct.std::_Vector_base" }
%"struct.std::_Vector_base" = type { %"struct.std::_Vector_base<signed char, std::allocator<signed char>>::_Vector_impl" }
%"struct.std::_Vector_base<signed char, std::allocator<signed char>>::_Vector_impl" = type { %"struct.std::_Vector_base<signed char, std::allocator<signed char>>::_Vector_impl_data" }
%"struct.std::_Vector_base<signed char, std::allocator<signed char>>::_Vector_impl_data" = type { ptr, ptr, ptr }
%"class.std::vector.0" = type { %"struct.std::_Vector_base.1" }
%"struct.std::_Vector_base.1" = type { %"struct.std::_Vector_base<long, std::allocator<long>>::_Vector_impl" }
%"struct.std::_Vector_base<long, std::allocator<long>>::_Vector_impl" = type { %"struct.std::_Vector_base<long, std::allocator<long>>::_Vector_impl_data" }
%"struct.std::_Vector_base<long, std::allocator<long>>::_Vector_impl_data" = type { ptr, ptr, ptr }

; Function Attrs: mustprogress nounwind uwtable
define linkonce_odr noundef nonnull align 1 dereferenceable(1) ptr @_ZNSt6vectorIaSaIaEEixEm(ptr noundef nonnull align 8 dereferenceable(24) %this, i64 noundef %__n) #5 comdat align 2 {
entry:
  %this.addr = alloca ptr, align 8
  %__n.addr = alloca i64, align 8
  store ptr %this, ptr %this.addr, align 8
  store i64 %__n, ptr %__n.addr, align 8
  %this1 = load ptr, ptr %this.addr, align 8
  %_M_impl = getelementptr inbounds %"struct.std::_Vector_base", ptr %this1, i32 0, i32 0
  %_M_start = getelementptr inbounds %"struct.std::_Vector_base<signed char, std::allocator<signed char>>::_Vector_impl_data", ptr %_M_impl, i32 0, i32 0
  %0 = load ptr, ptr %_M_start, align 8
  %1 = load i64, ptr %__n.addr, align 8
  %add.ptr = getelementptr inbounds i8, ptr %0, i64 %1
  ret ptr %add.ptr
}

; Function Attrs: mustprogress nounwind uwtable
define void @_ZN7openvdb5v11_02io19DelayedLoadMetadata7setMaskEmRKa(ptr noundef nonnull align 8 dereferenceable(56) %this, i64 noundef %index, ptr noundef nonnull align 1 dereferenceable(1) %value) #5 align 2 {
entry:
  %this.addr = alloca ptr, align 8
  %index.addr = alloca i64, align 8
  %value.addr = alloca ptr, align 8
  store ptr %this, ptr %this.addr, align 8
  store i64 %index, ptr %index.addr, align 8
  store ptr %value, ptr %value.addr, align 8
  %this1 = load ptr, ptr %this.addr, align 8
  %0 = load ptr, ptr %value.addr, align 8
  %1 = load i8, ptr %0, align 1
  %mMask = getelementptr inbounds %"class.openvdb::v11_0::io::DelayedLoadMetadata", ptr %this1, i32 0, i32 1
  %2 = load i64, ptr %index.addr, align 8
  %call = call noundef nonnull align 1 dereferenceable(1) ptr @_ZNSt6vectorIaSaIaEEixEm(ptr noundef nonnull align 8 dereferenceable(24) %mMask, i64 noundef %2) #3
  store i8 %1, ptr %call, align 1
  ret void
}