; Function Attrs: mustprogress nofree norecurse nosync nounwind willreturn memory(write, argmem: readwrite, inaccessiblemem: none) uwtable
define void @_ZN7openvdb5v11_02io19DelayedLoadMetadata7setMaskEmRKa(ptr nocapture noundef nonnull readonly align 8 dereferenceable(56) %this, i64 noundef %index, ptr nocapture noundef nonnull readonly align 1 dereferenceable(1) %value) local_unnamed_addr #13 align 2 {
entry:
  %0 = load i8, ptr %value, align 1
  %mMask = getelementptr inbounds i8, ptr %this, i64 8
  %1 = load ptr, ptr %mMask, align 8
  %add.ptr.i = getelementptr inbounds i8, ptr %1, i64 %index
  store i8 %0, ptr %add.ptr.i, align 1
  ret void
}